; Function Attrs: mustprogress uwtable
define noundef zeroext i1 @_ZNK7xgboost10JsonStringeqERKNS_5ValueE(ptr noundef nonnull readonly align 8 captures(none) dereferenceable(56) %0, ptr noundef nonnull align 8 dereferenceable(24) %1) unnamed_addr #3 align 2 personality ptr @__gxx_personality_v0 {
  %3 = getelementptr inbounds nuw i8, ptr %1, i64 16
  %4 = load i64, ptr %3, align 8, !tbaa !8
  %5 = icmp eq i64 %4, 0
  br i1 %5, label %6, label %_ZSteqIcEN9__gnu_cxx11__enable_ifIXsr9__is_charIT_EE7__valueEbE6__typeERKNSt7__cxx1112basic_stringIS2_St11char_traitsIS2_ESaIS2_EEESC_.exit

6:                                                ; preds = %2
  %7 = tail call noundef ptr @_ZN7xgboost4CastIKNS_10JsonStringEKNS_5ValueEEEPT_PT0_(ptr noundef nonnull %1)
  %8 = getelementptr inbounds nuw i8, ptr %7, i64 24
  %9 = getelementptr inbounds nuw i8, ptr %0, i64 24
  %10 = getelementptr inbounds nuw i8, ptr %7, i64 32
  %11 = load i64, ptr %10, align 8, !tbaa !31
  %12 = getelementptr inbounds nuw i8, ptr %0, i64 32
  %13 = load i64, ptr %12, align 8, !tbaa !31
  %14 = icmp eq i64 %11, %13
  br i1 %14, label %15, label %_ZSteqIcEN9__gnu_cxx11__enable_ifIXsr9__is_charIT_EE7__valueEbE6__typeERKNSt7__cxx1112basic_stringIS2_St11char_traitsIS2_ESaIS2_EEESC_.exit

15:                                               ; preds = %6
  %16 = icmp eq i64 %11, 0
  br i1 %16, label %_ZSteqIcEN9__gnu_cxx11__enable_ifIXsr9__is_charIT_EE7__valueEbE6__typeERKNSt7__cxx1112basic_stringIS2_St11char_traitsIS2_ESaIS2_EEESC_.exit, label %17

17:                                               ; preds = %15
  %18 = load ptr, ptr %9, align 8, !tbaa !38
  %19 = load ptr, ptr %8, align 8, !tbaa !38
  %bcmp.i = tail call i32 @bcmp(ptr %19, ptr %18, i64 %11)
  %20 = icmp eq i32 %bcmp.i, 0
  br label %_ZSteqIcEN9__gnu_cxx11__enable_ifIXsr9__is_charIT_EE7__valueEbE6__typeERKNSt7__cxx1112basic_stringIS2_St11char_traitsIS2_ESaIS2_EEESC_.exit

_ZSteqIcEN9__gnu_cxx11__enable_ifIXsr9__is_charIT_EE7__valueEbE6__typeERKNSt7__cxx1112basic_stringIS2_St11char_traitsIS2_ESaIS2_EEESC_.exit: ; preds = %17, %15, %6, %2
  %.0 = phi i1 [ false, %2 ], [ false, %6 ], [ %20, %17 ], [ true, %15 ]
  ret i1 %.0
}